target datalayout = "e-m:e-p270:32:32-p271:32:32-p272:64:64-i64:64-i128:128-f80:128-n8:16:32:64-S128"
target triple = "x86_64-pc-linux-gnu"

%struct.rdp_transports_key_t = type { %struct._address, i16, i8, i32, [16 x i8] }
%struct._address = type { i32, i32, ptr, ptr }

; Function Attrs: inlinehint nounwind null_pointer_is_valid sspstrong uwtable
define internal zeroext i1 @addresses_equal(ptr noundef %0, ptr noundef %1) #11 {
  %3 = alloca i1, align 1
  %4 = alloca ptr, align 8
  %5 = alloca ptr, align 8
  store ptr %0, ptr %4, align 8
  store ptr %1, ptr %5, align 8
  %6 = load ptr, ptr %4, align 8
  %7 = getelementptr inbounds nuw %struct._address, ptr %6, i32 0, i32 0
  %8 = load i32, ptr %7, align 8
  %9 = load ptr, ptr %5, align 8
  %10 = getelementptr inbounds nuw %struct._address, ptr %9, i32 0, i32 0
  %11 = load i32, ptr %10, align 8
  %12 = icmp eq i32 %8, %11
  br i1 %12, label %13, label %40

13:                                               ; preds = %2
  %14 = load ptr, ptr %4, align 8
  %15 = getelementptr inbounds nuw %struct._address, ptr %14, i32 0, i32 1
  %16 = load i32, ptr %15, align 4
  %17 = load ptr, ptr %5, align 8
  %18 = getelementptr inbounds nuw %struct._address, ptr %17, i32 0, i32 1
  %19 = load i32, ptr %18, align 4
  %20 = icmp eq i32 %16, %19
  br i1 %20, label %21, label %40

21:                                               ; preds = %13
  %22 = load ptr, ptr %4, align 8
  %23 = getelementptr inbounds nuw %struct._address, ptr %22, i32 0, i32 1
  %24 = load i32, ptr %23, align 4
  %25 = icmp eq i32 %24, 0
  br i1 %25, label %39, label %26

26:                                               ; preds = %21
  %27 = load ptr, ptr %4, align 8
  %28 = getelementptr inbounds nuw %struct._address, ptr %27, i32 0, i32 2
  %29 = load ptr, ptr %28, align 8
  %30 = load ptr, ptr %5, align 8
  %31 = getelementptr inbounds nuw %struct._address, ptr %30, i32 0, i32 2
  %32 = load ptr, ptr %31, align 8
  %33 = load ptr, ptr %4, align 8
  %34 = getelementptr inbounds nuw %struct._address, ptr %33, i32 0, i32 1
  %35 = load i32, ptr %34, align 4
  %36 = sext i32 %35 to i64
  %37 = call i32 @memcmp(ptr noundef %29, ptr noundef %32, i64 noundef %36) #19
  %38 = icmp eq i32 %37, 0
  br i1 %38, label %39, label %40

39:                                               ; preds = %26, %21
  store i1 true, ptr %3, align 1
  br label %41

40:                                               ; preds = %26, %13, %2
  store i1 false, ptr %3, align 1
  br label %41

41:                                               ; preds = %40, %39
  %42 = load i1, ptr %3, align 1
  ret i1 %42
}

; Function Attrs: null_pointer_is_valid sspstrong uwtable
define internal i32 @rdp_udp_conversation_equal_matched(ptr noundef %0, ptr noundef %1) #0 {
  %3 = alloca ptr, align 8
  %4 = alloca ptr, align 8
  %5 = alloca ptr, align 8
  %6 = alloca ptr, align 8
  store ptr %0, ptr %3, align 8
  store ptr %1, ptr %4, align 8
  call void @llvm.lifetime.start.p0(i64 8, ptr %5) #15
  %7 = load ptr, ptr %3, align 8
  store ptr %7, ptr %5, align 8
  call void @llvm.lifetime.start.p0(i64 8, ptr %6) #15
  %8 = load ptr, ptr %4, align 8
  store ptr %8, ptr %6, align 8
  %9 = load ptr, ptr %5, align 8
  %10 = getelementptr inbounds nuw %struct.rdp_transports_key_t, ptr %9, i32 0, i32 0
  %11 = load ptr, ptr %6, align 8
  %12 = getelementptr inbounds nuw %struct.rdp_transports_key_t, ptr %11, i32 0, i32 0
  %13 = call zeroext i1 @addresses_equal(ptr noundef %10, ptr noundef %12)
  br i1 %13, label %14, label %53

14:                                               ; preds = %2
  %15 = load ptr, ptr %5, align 8
  %16 = getelementptr inbounds nuw %struct.rdp_transports_key_t, ptr %15, i32 0, i32 1
  %17 = load i16, ptr %16, align 8
  %18 = zext i16 %17 to i32
  %19 = load ptr, ptr %6, align 8
  %20 = getelementptr inbounds nuw %struct.rdp_transports_key_t, ptr %19, i32 0, i32 1
  %21 = load i16, ptr %20, align 8
  %22 = zext i16 %21 to i32
  %23 = icmp eq i32 %18, %22
  br i1 %23, label %24, label %53

24:                                               ; preds = %14
  %25 = load ptr, ptr %5, align 8
  %26 = getelementptr inbounds nuw %struct.rdp_transports_key_t, ptr %25, i32 0, i32 2
  %27 = load i8, ptr %26, align 2, !range !6, !noundef !7
  %28 = trunc i8 %27 to i1
  %29 = zext i1 %28 to i32
  %30 = load ptr, ptr %6, align 8
  %31 = getelementptr inbounds nuw %struct.rdp_transports_key_t, ptr %30, i32 0, i32 2
  %32 = load i8, ptr %31, align 2, !range !6, !noundef !7
  %33 = trunc i8 %32 to i1
  %34 = zext i1 %33 to i32
  %35 = icmp eq i32 %29, %34
  br i1 %35, label %36, label %53

36:                                               ; preds = %24
  %37 = load ptr, ptr %5, align 8
  %38 = getelementptr inbounds nuw %struct.rdp_transports_key_t, ptr %37, i32 0, i32 3
  %39 = load i32, ptr %38, align 4
  %40 = load ptr, ptr %6, align 8
  %41 = getelementptr inbounds nuw %struct.rdp_transports_key_t, ptr %40, i32 0, i32 3
  %42 = load i32, ptr %41, align 4
  %43 = icmp eq i32 %39, %42
  br i1 %43, label %44, label %53

44:                                               ; preds = %36
  %45 = load ptr, ptr %5, align 8
  %46 = getelementptr inbounds nuw %struct.rdp_transports_key_t, ptr %45, i32 0, i32 4
  %47 = getelementptr inbounds [16 x i8], ptr %46, i64 0, i64 0
  %48 = load ptr, ptr %6, align 8
  %49 = getelementptr inbounds nuw %struct.rdp_transports_key_t, ptr %48, i32 0, i32 4
  %50 = getelementptr inbounds [16 x i8], ptr %49, i64 0, i64 0
  %51 = call i32 @memcmp(ptr noundef %47, ptr noundef %50, i64 noundef 16) #19
  %52 = icmp eq i32 %51, 0
  br label %53

53:                                               ; preds = %44, %36, %24, %14, %2
  %54 = phi i1 [ false, %36 ], [ false, %24 ], [ false, %14 ], [ false, %2 ], [ %52, %44 ]
  %55 = zext i1 %54 to i32
  call void @llvm.lifetime.end.p0(i64 8, ptr %6) #15
  call void @llvm.lifetime.end.p0(i64 8, ptr %5) #15
  ret i32 %55
}